target datalayout = "e-m:e-p270:32:32-p271:32:32-p272:64:64-i64:64-i128:128-f80:128-n8:16:32:64-S128"
target triple = "x86_64-pc-linux-gnu"

%struct.Msat_Solver_t_ = type { i32, i32, ptr, ptr, double, double, ptr, ptr, double, double, ptr, ptr, ptr, i32, i32, ptr, ptr, ptr, ptr, ptr, ptr, i32, double, i32, double, ptr, ptr, ptr, ptr, i32, ptr, ptr, ptr, ptr, %struct.Msat_SolverStats_t_, i32, i32, i32, i32, i32, i32 }
%struct.Msat_SolverStats_t_ = type { i64, i64, i64, i64, i64, i64 }

; Function Attrs: nounwind uwtable
define void @Msat_SolverPrepare(ptr noundef %0, ptr noundef %1) #0 {
  %3 = alloca ptr, align 8
  %4 = alloca ptr, align 8
  %5 = alloca i32, align 4
  store ptr %0, ptr %3, align 8, !tbaa !3
  store ptr %1, ptr %4, align 8, !tbaa !89
  call void @llvm.lifetime.start.p0(i64 4, ptr %5) #7
  store i32 0, ptr %5, align 4, !tbaa !29
  br label %6

6:                                                ; preds = %37, %2
  %7 = load i32, ptr %5, align 4, !tbaa !29
  %8 = load ptr, ptr %3, align 8, !tbaa !3
  %9 = getelementptr inbounds nuw %struct.Msat_Solver_t_, ptr %8, i32 0, i32 14
  %10 = load i32, ptr %9, align 4, !tbaa !25
  %11 = icmp slt i32 %7, %10
  br i1 %11, label %12, label %40

12:                                               ; preds = %6
  %13 = load ptr, ptr %3, align 8, !tbaa !3
  %14 = getelementptr inbounds nuw %struct.Msat_Solver_t_, ptr %13, i32 0, i32 15
  %15 = load ptr, ptr %14, align 8, !tbaa !30
  %16 = load i32, ptr %5, align 4, !tbaa !29
  %17 = sext i32 %16 to i64
  %18 = getelementptr inbounds i32, ptr %15, i64 %17
  store i32 -1, ptr %18, align 4, !tbaa !29
  %19 = load ptr, ptr %3, align 8, !tbaa !3
  %20 = getelementptr inbounds nuw %struct.Msat_Solver_t_, ptr %19, i32 0, i32 19
  %21 = load ptr, ptr %20, align 8, !tbaa !28
  %22 = load i32, ptr %5, align 4, !tbaa !29
  %23 = sext i32 %22 to i64
  %24 = getelementptr inbounds ptr, ptr %21, i64 %23
  store ptr null, ptr %24, align 8, !tbaa !73
  %25 = load ptr, ptr %3, align 8, !tbaa !3
  %26 = getelementptr inbounds nuw %struct.Msat_Solver_t_, ptr %25, i32 0, i32 20
  %27 = load ptr, ptr %26, align 8, !tbaa !27
  %28 = load i32, ptr %5, align 4, !tbaa !29
  %29 = sext i32 %28 to i64
  %30 = getelementptr inbounds i32, ptr %27, i64 %29
  store i32 -1, ptr %30, align 4, !tbaa !29
  %31 = load ptr, ptr %3, align 8, !tbaa !3
  %32 = getelementptr inbounds nuw %struct.Msat_Solver_t_, ptr %31, i32 0, i32 6
  %33 = load ptr, ptr %32, align 8, !tbaa !53
  %34 = load i32, ptr %5, align 4, !tbaa !29
  %35 = sext i32 %34 to i64
  %36 = getelementptr inbounds double, ptr %33, i64 %35
  store double 0.000000e+00, ptr %36, align 8, !tbaa !48
  br label %37

37:                                               ; preds = %12
  %38 = load i32, ptr %5, align 4, !tbaa !29
  %39 = add nsw i32 %38, 1
  store i32 %39, ptr %5, align 4, !tbaa !29
  br label %6, !llvm.loop !90

40:                                               ; preds = %6
  %41 = load ptr, ptr %3, align 8, !tbaa !3
  %42 = getelementptr inbounds nuw %struct.Msat_Solver_t_, ptr %41, i32 0, i32 10
  %43 = load ptr, ptr %42, align 8, !tbaa !59
  %44 = load ptr, ptr %4, align 8, !tbaa !89
  call void @Msat_OrderClean(ptr noundef %43, ptr noundef %44)
  %45 = load ptr, ptr %3, align 8, !tbaa !3
  %46 = getelementptr inbounds nuw %struct.Msat_Solver_t_, ptr %45, i32 0, i32 12
  %47 = load ptr, ptr %46, align 8, !tbaa !62
  call void @Msat_QueueClear(ptr noundef %47)
  %48 = load ptr, ptr %3, align 8, !tbaa !3
  %49 = getelementptr inbounds nuw %struct.Msat_Solver_t_, ptr %48, i32 0, i32 17
  %50 = load ptr, ptr %49, align 8, !tbaa !63
  call void @Msat_IntVecClear(ptr noundef %50)
  %51 = load ptr, ptr %3, align 8, !tbaa !3
  %52 = getelementptr inbounds nuw %struct.Msat_Solver_t_, ptr %51, i32 0, i32 18
  %53 = load ptr, ptr %52, align 8, !tbaa !26
  call void @Msat_IntVecClear(ptr noundef %53)
  %54 = load ptr, ptr %3, align 8, !tbaa !3
  %55 = getelementptr inbounds nuw %struct.Msat_Solver_t_, ptr %54, i32 0, i32 24
  store double 0.000000e+00, ptr %55, align 8, !tbaa !66
  call void @llvm.lifetime.end.p0(i64 4, ptr %5) #7
  ret void
}