; Function Attrs: nounwind uwtable
define void @Msat_SolverPrepare(ptr noundef captures(none) %0, ptr noundef %1) local_unnamed_addr #1 {
  %3 = getelementptr inbounds nuw i8, ptr %0, i64 100
  %4 = load i32, ptr %3, align 4, !tbaa !23
  %5 = icmp sgt i32 %4, 0
  br i1 %5, label %.lr.ph, label %._crit_edge

.lr.ph:                                           ; preds = %2
  %6 = getelementptr inbounds nuw i8, ptr %0, i64 104
  %7 = load ptr, ptr %6, align 8, !tbaa !27
  %8 = getelementptr inbounds nuw i8, ptr %0, i64 136
  %9 = load ptr, ptr %8, align 8, !tbaa !26
  %10 = getelementptr inbounds nuw i8, ptr %0, i64 144
  %11 = load ptr, ptr %10, align 8, !tbaa !25
  %12 = getelementptr inbounds nuw i8, ptr %0, i64 40
  %13 = load ptr, ptr %12, align 8, !tbaa !50
  br label %14

14:                                               ; preds = %.lr.ph, %14
  %indvars.iv = phi i64 [ 0, %.lr.ph ], [ %indvars.iv.next, %14 ]
  %15 = getelementptr inbounds nuw i32, ptr %7, i64 %indvars.iv
  store i32 -1, ptr %15, align 4, !tbaa !28
  %16 = getelementptr inbounds nuw ptr, ptr %9, i64 %indvars.iv
  store ptr null, ptr %16, align 8, !tbaa !69
  %17 = getelementptr inbounds nuw i32, ptr %11, i64 %indvars.iv
  store i32 -1, ptr %17, align 4, !tbaa !28
  %18 = getelementptr inbounds nuw double, ptr %13, i64 %indvars.iv
  store double 0.000000e+00, ptr %18, align 8, !tbaa !51
  %indvars.iv.next = add nuw nsw i64 %indvars.iv, 1
  %19 = load i32, ptr %3, align 4, !tbaa !23
  %20 = sext i32 %19 to i64
  %21 = icmp slt i64 %indvars.iv.next, %20
  br i1 %21, label %14, label %._crit_edge, !llvm.loop !82

._crit_edge:                                      ; preds = %14, %2
  %22 = getelementptr inbounds nuw i8, ptr %0, i64 72
  %23 = load ptr, ptr %22, align 8, !tbaa !56
  tail call void @Msat_OrderClean(ptr noundef %23, ptr noundef %1) #11
  %24 = getelementptr inbounds nuw i8, ptr %0, i64 88
  %25 = load ptr, ptr %24, align 8, !tbaa !59
  tail call void @Msat_QueueClear(ptr noundef %25) #11
  %26 = getelementptr inbounds nuw i8, ptr %0, i64 120
  %27 = load ptr, ptr %26, align 8, !tbaa !60
  tail call void @Msat_IntVecClear(ptr noundef %27) #11
  %28 = getelementptr inbounds nuw i8, ptr %0, i64 128
  %29 = load ptr, ptr %28, align 8, !tbaa !24
  tail call void @Msat_IntVecClear(ptr noundef %29) #11
  %30 = getelementptr inbounds nuw i8, ptr %0, i64 176
  store double 0.000000e+00, ptr %30, align 8, !tbaa !62
  ret void
}